target datalayout = "e-m:e-p270:32:32-p271:32:32-p272:64:64-i64:64-i128:128-f80:128-n8:16:32:64-S128"
target triple = "x86_64-pc-linux-gnu"

%struct._zend_alloc_globals = type { ptr }
%struct._zend_mm_heap = type { i32, ptr, i64, i64, [30 x ptr], i64, i64, i64, i32, ptr, ptr, ptr, i32, i32, i32, double, i32, i32, %struct.anon, ptr }
%struct.anon = type { ptr, ptr, ptr }
%struct._zend_mm_chunk = type { ptr, ptr, ptr, i32, i32, i32, [28 x i8], %struct._zend_mm_heap, [8 x i64], [512 x i32] }

@.str = private unnamed_addr constant [23 x i8] c"zend_mm_heap corrupted\00", align 1
@alloc_globals = internal global %struct._zend_alloc_globals zeroinitializer, align 8

; Function Attrs: nounwind uwtable
define void @_efree(ptr noundef %0) #0 {
  %2 = alloca ptr, align 8
  %3 = alloca ptr, align 8
  %4 = alloca i32, align 4
  %5 = alloca i32, align 4
  %6 = alloca ptr, align 8
  %7 = alloca ptr, align 8
  %8 = alloca i32, align 4
  %9 = alloca ptr, align 8
  %10 = alloca ptr, align 8
  %11 = alloca ptr, align 8
  %12 = alloca i64, align 8
  %13 = alloca ptr, align 8
  %14 = alloca i32, align 4
  %15 = alloca i32, align 4
  %16 = alloca i32, align 4
  %17 = alloca ptr, align 8
  store ptr %0, ptr %17, align 8
  %18 = load ptr, ptr @alloc_globals, align 8
  %19 = getelementptr inbounds %struct._zend_mm_heap, ptr %18, i32 0, i32 0
  %20 = load i32, ptr %19, align 8
  %21 = icmp ne i32 %20, 0
  %22 = xor i1 %21, true
  %23 = xor i1 %22, true
  %24 = zext i1 %23 to i32
  %25 = sext i32 %24 to i64
  %26 = icmp ne i64 %25, 0
  br i1 %26, label %27, label %33

27:                                               ; preds = %1
  %28 = load ptr, ptr @alloc_globals, align 8
  %29 = getelementptr inbounds %struct._zend_mm_heap, ptr %28, i32 0, i32 18
  %30 = getelementptr inbounds %struct.anon, ptr %29, i32 0, i32 1
  %31 = load ptr, ptr %30, align 8
  %32 = load ptr, ptr %17, align 8
  call void %31(ptr noundef %32)
  br label %126

33:                                               ; preds = %1
  %34 = load ptr, ptr @alloc_globals, align 8
  %35 = load ptr, ptr %17, align 8
  store ptr %34, ptr %10, align 8
  store ptr %35, ptr %11, align 8
  %36 = load ptr, ptr %11, align 8
  %37 = ptrtoint ptr %36 to i64
  %38 = and i64 %37, 2097151
  store i64 %38, ptr %12, align 8
  %39 = load i64, ptr %12, align 8
  %40 = icmp eq i64 %39, 0
  br i1 %40, label %41, label %48

41:                                               ; preds = %33
  %42 = load ptr, ptr %11, align 8
  %43 = icmp ne ptr %42, null
  br i1 %43, label %44, label %47

44:                                               ; preds = %41
  %45 = load ptr, ptr %10, align 8
  %46 = load ptr, ptr %11, align 8
  call void @zend_mm_free_huge(ptr noundef %45, ptr noundef %46)
  br label %47

47:                                               ; preds = %44, %41
  br label %125

48:                                               ; preds = %33
  %49 = load ptr, ptr %11, align 8
  %50 = ptrtoint ptr %49 to i64
  %51 = and i64 %50, -2097152
  %52 = inttoptr i64 %51 to ptr
  store ptr %52, ptr %13, align 8
  %53 = load i64, ptr %12, align 8
  %54 = udiv i64 %53, 4096
  %55 = trunc i64 %54 to i32
  store i32 %55, ptr %14, align 4
  %56 = load ptr, ptr %13, align 8
  %57 = getelementptr inbounds %struct._zend_mm_chunk, ptr %56, i32 0, i32 9
  %58 = load i32, ptr %14, align 4
  %59 = sext i32 %58 to i64
  %60 = getelementptr inbounds [512 x i32], ptr %57, i64 0, i64 %59
  %61 = load i32, ptr %60, align 4
  store i32 %61, ptr %15, align 4
  %62 = load ptr, ptr %13, align 8
  %63 = load ptr, ptr %62, align 8
  %64 = load ptr, ptr %10, align 8
  %65 = icmp eq ptr %63, %64
  %66 = xor i1 %65, true
  br i1 %66, label %67, label %68

67:                                               ; preds = %48
  call void @zend_mm_panic(ptr noundef @.str) #19
  unreachable

68:                                               ; preds = %48
  %69 = load i32, ptr %15, align 4
  %70 = and i32 %69, -2147483648
  %71 = icmp ne i32 %70, 0
  br i1 %71, label %72, label %100

72:                                               ; preds = %68
  %73 = load ptr, ptr %10, align 8
  %74 = load ptr, ptr %11, align 8
  %75 = load i32, ptr %15, align 4
  %76 = and i32 %75, 31
  store ptr %73, ptr %6, align 8
  store ptr %74, ptr %7, align 8
  store i32 %76, ptr %8, align 4
  %77 = load i32, ptr %8, align 4
  %78 = sext i32 %77 to i64
  %79 = getelementptr inbounds [30 x i32], ptr @bin_data_size, i64 0, i64 %78
  %80 = load i32, ptr %79, align 4
  %81 = zext i32 %80 to i64
  %82 = load ptr, ptr %6, align 8
  %83 = getelementptr inbounds %struct._zend_mm_heap, ptr %82, i32 0, i32 2
  %84 = load i64, ptr %83, align 8
  %85 = sub i64 %84, %81
  store i64 %85, ptr %83, align 8
  %86 = load ptr, ptr %7, align 8
  store ptr %86, ptr %9, align 8
  %87 = load ptr, ptr %6, align 8
  %88 = getelementptr inbounds %struct._zend_mm_heap, ptr %87, i32 0, i32 4
  %89 = load i32, ptr %8, align 4
  %90 = sext i32 %89 to i64
  %91 = getelementptr inbounds [30 x ptr], ptr %88, i64 0, i64 %90
  %92 = load ptr, ptr %91, align 8
  %93 = load ptr, ptr %9, align 8
  store ptr %92, ptr %93, align 8
  %94 = load ptr, ptr %9, align 8
  %95 = load ptr, ptr %6, align 8
  %96 = getelementptr inbounds %struct._zend_mm_heap, ptr %95, i32 0, i32 4
  %97 = load i32, ptr %8, align 4
  %98 = sext i32 %97 to i64
  %99 = getelementptr inbounds [30 x ptr], ptr %96, i64 0, i64 %98
  store ptr %94, ptr %99, align 8
  br label %124

100:                                              ; preds = %68
  %101 = load i32, ptr %15, align 4
  %102 = and i32 %101, 1023
  store i32 %102, ptr %16, align 4
  %103 = load i64, ptr %12, align 8
  %104 = and i64 %103, 4095
  %105 = icmp eq i64 %104, 0
  %106 = xor i1 %105, true
  br i1 %106, label %107, label %108

107:                                              ; preds = %100
  call void @zend_mm_panic(ptr noundef @.str) #19
  unreachable

108:                                              ; preds = %100
  %109 = load ptr, ptr %10, align 8
  %110 = load ptr, ptr %13, align 8
  %111 = load i32, ptr %14, align 4
  %112 = load i32, ptr %16, align 4
  store ptr %109, ptr %2, align 8
  store ptr %110, ptr %3, align 8
  store i32 %111, ptr %4, align 4
  store i32 %112, ptr %5, align 4
  %113 = load i32, ptr %5, align 4
  %114 = mul nsw i32 %113, 4096
  %115 = sext i32 %114 to i64
  %116 = load ptr, ptr %2, align 8
  %117 = getelementptr inbounds %struct._zend_mm_heap, ptr %116, i32 0, i32 2
  %118 = load i64, ptr %117, align 8
  %119 = sub i64 %118, %115
  store i64 %119, ptr %117, align 8
  %120 = load ptr, ptr %2, align 8
  %121 = load ptr, ptr %3, align 8
  %122 = load i32, ptr %4, align 4
  %123 = load i32, ptr %5, align 4
  call void @zend_mm_free_pages(ptr noundef %120, ptr noundef %121, i32 noundef %122, i32 noundef %123)
  br label %124

124:                                              ; preds = %108, %72
  br label %125

125:                                              ; preds = %124, %47
  br label %126

126:                                              ; preds = %125, %27
  ret void
}