; Function Attrs: nounwind uwtable
define void @_efree(ptr noundef %0) local_unnamed_addr #0 {
  %2 = load ptr, ptr @alloc_globals.0, align 8
  %3 = load i32, ptr %2, align 8
  %.not = icmp eq i32 %3, 0
  br i1 %.not, label %7, label %4

4:                                                ; preds = %1
  %5 = getelementptr inbounds i8, ptr %2, i64 368
  %6 = load ptr, ptr %5, align 8
  tail call void %6(ptr noundef %0) #35
  br label %46

7:                                                ; preds = %1
  %8 = ptrtoint ptr %0 to i64
  %9 = and i64 %8, 2097151
  %10 = icmp eq i64 %9, 0
  br i1 %10, label %11, label %13

11:                                               ; preds = %7
  %.not41 = icmp eq ptr %0, null
  br i1 %.not41, label %46, label %12

12:                                               ; preds = %11
  tail call fastcc void @zend_mm_free_huge(ptr noundef nonnull %2, ptr noundef nonnull %0)
  br label %46

13:                                               ; preds = %7
  %14 = and i64 %8, -2097152
  %15 = inttoptr i64 %14 to ptr
  %16 = lshr i64 %9, 12
  %17 = trunc i64 %16 to i32
  %18 = getelementptr inbounds i8, ptr %15, i64 520
  %19 = getelementptr inbounds [512 x i32], ptr %18, i64 0, i64 %16
  %20 = load i32, ptr %19, align 4
  %21 = load ptr, ptr %15, align 2097152
  %.not38 = icmp eq ptr %21, %2
  br i1 %.not38, label %23, label %22

22:                                               ; preds = %13
  tail call fastcc void @zend_mm_panic() #34
  unreachable

23:                                               ; preds = %13
  %.not39 = icmp sgt i32 %20, -1
  br i1 %.not39, label %36, label %24

24:                                               ; preds = %23
  %25 = and i32 %20, 31
  %26 = zext nneg i32 %25 to i64
  %27 = getelementptr inbounds [30 x i32], ptr @bin_data_size, i64 0, i64 %26
  %28 = load i32, ptr %27, align 4
  %29 = zext i32 %28 to i64
  %30 = getelementptr inbounds i8, ptr %2, i64 16
  %31 = load i64, ptr %30, align 8
  %32 = sub i64 %31, %29
  store i64 %32, ptr %30, align 8
  %33 = getelementptr inbounds i8, ptr %2, i64 32
  %34 = getelementptr inbounds [30 x ptr], ptr %33, i64 0, i64 %26
  %35 = load ptr, ptr %34, align 8
  store ptr %35, ptr %0, align 8
  store ptr %0, ptr %34, align 8
  br label %46

36:                                               ; preds = %23
  %37 = and i64 %8, 4095
  %.not40 = icmp eq i64 %37, 0
  br i1 %.not40, label %39, label %38

38:                                               ; preds = %36
  tail call fastcc void @zend_mm_panic() #34
  unreachable

39:                                               ; preds = %36
  %40 = and i32 %20, 1023
  %41 = shl nuw nsw i32 %40, 12
  %42 = zext nneg i32 %41 to i64
  %43 = getelementptr inbounds i8, ptr %2, i64 16
  %44 = load i64, ptr %43, align 8
  %45 = sub i64 %44, %42
  store i64 %45, ptr %43, align 8
  tail call fastcc void @zend_mm_free_pages(ptr noundef nonnull %2, ptr noundef nonnull %15, i32 noundef %17, i32 noundef %40)
  br label %46

46:                                               ; preds = %12, %11, %39, %24, %4
  ret void
}